; Function Attrs: mustprogress nofree norecurse nosync nounwind willreturn memory(argmem: read) uwtable
define dso_local noundef zeroext i1 @_ZNK4Luau8Location14containsClosedERKNS_8PositionE(ptr nocapture noundef nonnull readonly align 4 dereferenceable(16) %0, ptr nocapture noundef nonnull readonly align 4 dereferenceable(8) %1) local_unnamed_addr #0 align 2 {
  %3 = getelementptr inbounds i8, ptr %0, i64 4
  %4 = load i32, ptr %3, align 4
  %5 = getelementptr inbounds i8, ptr %1, i64 4
  %6 = load i32, ptr %5, align 4
  %7 = icmp eq i32 %4, %6
  %8 = load i32, ptr %0, align 4
  %9 = load i32, ptr %1, align 4
  %10 = icmp eq i32 %8, %9
  %11 = select i1 %7, i1 %10, i1 false
  br i1 %11, label %_ZNK4Luau8PositionleERKS0_.exit.thread, label %_ZNK4Luau8PositionleERKS0_.exit

_ZNK4Luau8PositionleERKS0_.exit:                  ; preds = %2
  %12 = icmp ult i32 %4, %6
  %13 = icmp ult i32 %8, %9
  %.0.i.i = select i1 %10, i1 %12, i1 %13
  br i1 %.0.i.i, label %_ZNK4Luau8PositionleERKS0_.exit.thread, label %_ZNK4Luau8PositionleERKS0_.exit4

_ZNK4Luau8PositionleERKS0_.exit.thread:           ; preds = %2, %_ZNK4Luau8PositionleERKS0_.exit
  %14 = getelementptr inbounds i8, ptr %0, i64 8
  %15 = getelementptr inbounds i8, ptr %0, i64 12
  %16 = load i32, ptr %15, align 4
  %17 = icmp eq i32 %6, %16
  %18 = load i32, ptr %14, align 4
  %19 = icmp eq i32 %9, %18
  %20 = select i1 %17, i1 %19, i1 false
  br i1 %20, label %_ZNK4Luau8PositionleERKS0_.exit4, label %21

21:                                               ; preds = %_ZNK4Luau8PositionleERKS0_.exit.thread
  %22 = icmp ult i32 %6, %16
  %23 = icmp ult i32 %9, %18
  %.0.i.i3 = select i1 %19, i1 %22, i1 %23
  br label %_ZNK4Luau8PositionleERKS0_.exit4

_ZNK4Luau8PositionleERKS0_.exit4:                 ; preds = %21, %_ZNK4Luau8PositionleERKS0_.exit.thread, %_ZNK4Luau8PositionleERKS0_.exit
  %24 = phi i1 [ false, %_ZNK4Luau8PositionleERKS0_.exit ], [ true, %_ZNK4Luau8PositionleERKS0_.exit.thread ], [ %.0.i.i3, %21 ]
  ret i1 %24
}